; Function Attrs: mustprogress uwtable
define noundef zeroext i1 @_ZNK8proxygen15HTTPTransaction23isExpectingWindowUpdateEv(ptr noundef nonnull align 8 dereferenceable(912) %this) local_unnamed_addr #3 align 2 {
entry:
  %egressState_ = getelementptr inbounds i8, ptr %this, i64 241
  %0 = load i8, ptr %egressState_, align 1
  %cmp.not = icmp eq i8 %0, 9
  br i1 %cmp.not, label %land.end, label %land.lhs.true

land.lhs.true:                                    ; preds = %entry
  %useFlowControl_ = getelementptr inbounds i8, ptr %this, i64 728
  %bf.load = load i32, ptr %useFlowControl_, align 8
  %1 = and i32 %bf.load, 32
  %bf.cast.not = icmp eq i32 %1, 0
  br i1 %bf.cast.not, label %land.end, label %land.rhs

land.rhs:                                         ; preds = %land.lhs.true
  %sendWindow_ = getelementptr inbounds i8, ptr %this, i64 352
  %call = tail call noundef i32 @_ZNK8proxygen6Window7getSizeEv(ptr noundef nonnull align 4 dereferenceable(8) %sendWindow_)
  %cmp2 = icmp slt i32 %call, 1
  br label %land.end

land.end:                                         ; preds = %land.rhs, %land.lhs.true, %entry
  %2 = phi i1 [ false, %land.lhs.true ], [ false, %entry ], [ %cmp2, %land.rhs ]
  ret i1 %2
}